target datalayout = "e-m:e-p270:32:32-p271:32:32-p272:64:64-i64:64-i128:128-f80:128-n8:16:32:64-S128"
target triple = "x86_64-pc-linux-gnu"

%struct.Raig_Man_t_ = type { ptr, i32, i32, i32, i32, i32, i32, i32, ptr, ptr, ptr, ptr, ptr, ptr, ptr, ptr, i32, i32, i32, i32 }

; Function Attrs: nounwind uwtable
define ptr @Raig_ManSimRef(ptr noundef %0, i32 noundef %1) #0 {
  %3 = alloca ptr, align 8
  %4 = alloca i32, align 4
  %5 = alloca ptr, align 8
  %6 = alloca ptr, align 8
  %7 = alloca i32, align 4
  store ptr %0, ptr %3, align 8
  store i32 %1, ptr %4, align 4
  %8 = load ptr, ptr %3, align 8
  %9 = getelementptr inbounds %struct.Raig_Man_t_, ptr %8, i32 0, i32 19
  %10 = load i32, ptr %9, align 4
  %11 = icmp eq i32 %10, 0
  br i1 %11, label %12, label %100

12:                                               ; preds = %2
  %13 = load ptr, ptr %3, align 8
  %14 = getelementptr inbounds %struct.Raig_Man_t_, ptr %13, i32 0, i32 16
  %15 = load i32, ptr %14, align 8
  %16 = icmp eq i32 %15, 0
  br i1 %16, label %17, label %22

17:                                               ; preds = %12
  %18 = load ptr, ptr %3, align 8
  %19 = getelementptr inbounds %struct.Raig_Man_t_, ptr %18, i32 0, i32 16
  store i32 131072, ptr %19, align 8
  %20 = load ptr, ptr %3, align 8
  %21 = getelementptr inbounds %struct.Raig_Man_t_, ptr %20, i32 0, i32 17
  store i32 1, ptr %21, align 4
  br label %22

22:                                               ; preds = %17, %12
  %23 = load ptr, ptr %3, align 8
  %24 = getelementptr inbounds %struct.Raig_Man_t_, ptr %23, i32 0, i32 16
  %25 = load i32, ptr %24, align 8
  %26 = mul nsw i32 %25, 2
  store i32 %26, ptr %24, align 8
  %27 = load ptr, ptr %3, align 8
  %28 = getelementptr inbounds %struct.Raig_Man_t_, ptr %27, i32 0, i32 15
  %29 = load ptr, ptr %28, align 8
  %30 = icmp ne ptr %29, null
  br i1 %30, label %31, label %41

31:                                               ; preds = %22
  %32 = load ptr, ptr %3, align 8
  %33 = getelementptr inbounds %struct.Raig_Man_t_, ptr %32, i32 0, i32 15
  %34 = load ptr, ptr %33, align 8
  %35 = load ptr, ptr %3, align 8
  %36 = getelementptr inbounds %struct.Raig_Man_t_, ptr %35, i32 0, i32 16
  %37 = load i32, ptr %36, align 8
  %38 = sext i32 %37 to i64
  %39 = mul i64 4, %38
  %40 = call ptr @realloc(ptr noundef %34, i64 noundef %39) #14
  br label %48

41:                                               ; preds = %22
  %42 = load ptr, ptr %3, align 8
  %43 = getelementptr inbounds %struct.Raig_Man_t_, ptr %42, i32 0, i32 16
  %44 = load i32, ptr %43, align 8
  %45 = sext i32 %44 to i64
  %46 = mul i64 4, %45
  %47 = call noalias ptr @malloc(i64 noundef %46) #11
  br label %48

48:                                               ; preds = %41, %31
  %49 = phi ptr [ %40, %31 ], [ %47, %41 ]
  %50 = load ptr, ptr %3, align 8
  %51 = getelementptr inbounds %struct.Raig_Man_t_, ptr %50, i32 0, i32 15
  store ptr %49, ptr %51, align 8
  %52 = load ptr, ptr %3, align 8
  %53 = getelementptr inbounds %struct.Raig_Man_t_, ptr %52, i32 0, i32 15
  %54 = load ptr, ptr %53, align 8
  %55 = load ptr, ptr %3, align 8
  %56 = getelementptr inbounds %struct.Raig_Man_t_, ptr %55, i32 0, i32 1
  %57 = load i32, ptr %56, align 8
  %58 = add nsw i32 %57, 1
  %59 = sext i32 %58 to i64
  %60 = mul i64 4, %59
  call void @llvm.memset.p0.i64(ptr align 4 %54, i8 -1, i64 %60, i1 false)
  %61 = load ptr, ptr %3, align 8
  %62 = getelementptr inbounds %struct.Raig_Man_t_, ptr %61, i32 0, i32 19
  store ptr %62, ptr %6, align 8
  %63 = load ptr, ptr %3, align 8
  %64 = getelementptr inbounds %struct.Raig_Man_t_, ptr %63, i32 0, i32 17
  %65 = load i32, ptr %64, align 4
  %66 = load ptr, ptr %3, align 8
  %67 = getelementptr inbounds %struct.Raig_Man_t_, ptr %66, i32 0, i32 1
  %68 = load i32, ptr %67, align 8
  %69 = add nsw i32 %68, 1
  %70 = mul nsw i32 %65, %69
  store i32 %70, ptr %7, align 4
  br label %71

71:                                               ; preds = %91, %48
  %72 = load i32, ptr %7, align 4
  %73 = load ptr, ptr %3, align 8
  %74 = getelementptr inbounds %struct.Raig_Man_t_, ptr %73, i32 0, i32 1
  %75 = load i32, ptr %74, align 8
  %76 = add i32 %72, %75
  %77 = add i32 %76, 1
  %78 = load ptr, ptr %3, align 8
  %79 = getelementptr inbounds %struct.Raig_Man_t_, ptr %78, i32 0, i32 16
  %80 = load i32, ptr %79, align 8
  %81 = icmp ult i32 %77, %80
  br i1 %81, label %82, label %98

82:                                               ; preds = %71
  %83 = load i32, ptr %7, align 4
  %84 = load ptr, ptr %6, align 8
  store i32 %83, ptr %84, align 4
  %85 = load ptr, ptr %3, align 8
  %86 = getelementptr inbounds %struct.Raig_Man_t_, ptr %85, i32 0, i32 15
  %87 = load ptr, ptr %86, align 8
  %88 = load i32, ptr %7, align 4
  %89 = zext i32 %88 to i64
  %90 = getelementptr inbounds i32, ptr %87, i64 %89
  store ptr %90, ptr %6, align 8
  br label %91

91:                                               ; preds = %82
  %92 = load ptr, ptr %3, align 8
  %93 = getelementptr inbounds %struct.Raig_Man_t_, ptr %92, i32 0, i32 1
  %94 = load i32, ptr %93, align 8
  %95 = add nsw i32 %94, 1
  %96 = load i32, ptr %7, align 4
  %97 = add i32 %96, %95
  store i32 %97, ptr %7, align 4
  br label %71, !llvm.loop !10

98:                                               ; preds = %71
  %99 = load ptr, ptr %6, align 8
  store i32 0, ptr %99, align 4
  br label %100

100:                                              ; preds = %98, %2
  %101 = load ptr, ptr %3, align 8
  %102 = getelementptr inbounds %struct.Raig_Man_t_, ptr %101, i32 0, i32 19
  %103 = load i32, ptr %102, align 4
  %104 = load ptr, ptr %3, align 8
  %105 = getelementptr inbounds %struct.Raig_Man_t_, ptr %104, i32 0, i32 14
  %106 = load ptr, ptr %105, align 8
  %107 = load i32, ptr %4, align 4
  %108 = sext i32 %107 to i64
  %109 = getelementptr inbounds i32, ptr %106, i64 %108
  store i32 %103, ptr %109, align 4
  %110 = load ptr, ptr %3, align 8
  %111 = getelementptr inbounds %struct.Raig_Man_t_, ptr %110, i32 0, i32 15
  %112 = load ptr, ptr %111, align 8
  %113 = load ptr, ptr %3, align 8
  %114 = getelementptr inbounds %struct.Raig_Man_t_, ptr %113, i32 0, i32 19
  %115 = load i32, ptr %114, align 4
  %116 = sext i32 %115 to i64
  %117 = getelementptr inbounds i32, ptr %112, i64 %116
  store ptr %117, ptr %5, align 8
  %118 = load ptr, ptr %5, align 8
  %119 = getelementptr inbounds i32, ptr %118, i64 0
  %120 = load i32, ptr %119, align 4
  %121 = load ptr, ptr %3, align 8
  %122 = getelementptr inbounds %struct.Raig_Man_t_, ptr %121, i32 0, i32 19
  store i32 %120, ptr %122, align 4
  %123 = load ptr, ptr %3, align 8
  %124 = getelementptr inbounds %struct.Raig_Man_t_, ptr %123, i32 0, i32 13
  %125 = load ptr, ptr %124, align 8
  %126 = load i32, ptr %4, align 4
  %127 = sext i32 %126 to i64
  %128 = getelementptr inbounds i32, ptr %125, i64 %127
  %129 = load i32, ptr %128, align 4
  %130 = load ptr, ptr %5, align 8
  %131 = getelementptr inbounds i32, ptr %130, i64 0
  store i32 %129, ptr %131, align 4
  %132 = load ptr, ptr %3, align 8
  %133 = getelementptr inbounds %struct.Raig_Man_t_, ptr %132, i32 0, i32 17
  %134 = load i32, ptr %133, align 4
  %135 = add nsw i32 %134, 1
  store i32 %135, ptr %133, align 4
  %136 = load ptr, ptr %3, align 8
  %137 = getelementptr inbounds %struct.Raig_Man_t_, ptr %136, i32 0, i32 18
  %138 = load i32, ptr %137, align 8
  %139 = load ptr, ptr %3, align 8
  %140 = getelementptr inbounds %struct.Raig_Man_t_, ptr %139, i32 0, i32 17
  %141 = load i32, ptr %140, align 4
  %142 = icmp slt i32 %138, %141
  br i1 %142, label %143, label %149

143:                                              ; preds = %100
  %144 = load ptr, ptr %3, align 8
  %145 = getelementptr inbounds %struct.Raig_Man_t_, ptr %144, i32 0, i32 17
  %146 = load i32, ptr %145, align 4
  %147 = load ptr, ptr %3, align 8
  %148 = getelementptr inbounds %struct.Raig_Man_t_, ptr %147, i32 0, i32 18
  store i32 %146, ptr %148, align 8
  br label %149

149:                                              ; preds = %143, %100
  %150 = load ptr, ptr %5, align 8
  ret ptr %150
}