; Function Attrs: nounwind uwtable
define noundef ptr @Raig_ManSimRef(ptr noundef captures(none) %0, i32 noundef %1) local_unnamed_addr #1 {
  %3 = getelementptr inbounds nuw i8, ptr %0, i64 116
  %4 = load i32, ptr %3, align 4
  %5 = icmp eq i32 %4, 0
  br i1 %5, label %6, label %47

6:                                                ; preds = %2
  %7 = getelementptr inbounds nuw i8, ptr %0, i64 104
  %8 = load i32, ptr %7, align 8
  %9 = icmp eq i32 %8, 0
  br i1 %9, label %10, label %12

10:                                               ; preds = %6
  %11 = getelementptr inbounds nuw i8, ptr %0, i64 108
  store i32 1, ptr %11, align 4
  br label %12

12:                                               ; preds = %10, %6
  %13 = phi i32 [ 131072, %10 ], [ %8, %6 ]
  %14 = shl nsw i32 %13, 1
  store i32 %14, ptr %7, align 8
  %15 = getelementptr inbounds nuw i8, ptr %0, i64 96
  %16 = load ptr, ptr %15, align 8
  %.not = icmp eq ptr %16, null
  %17 = sext i32 %14 to i64
  %18 = shl nsw i64 %17, 2
  br i1 %.not, label %21, label %19

19:                                               ; preds = %12
  %20 = tail call ptr @realloc(ptr noundef nonnull %16, i64 noundef %18) #16
  %.pre = load i32, ptr %7, align 8
  br label %23

21:                                               ; preds = %12
  %22 = tail call noalias ptr @malloc(i64 noundef %18) #17
  br label %23

23:                                               ; preds = %21, %19
  %24 = phi i32 [ %.pre, %19 ], [ %14, %21 ]
  %25 = phi ptr [ %20, %19 ], [ %22, %21 ]
  store ptr %25, ptr %15, align 8
  %26 = getelementptr inbounds nuw i8, ptr %0, i64 8
  %27 = load i32, ptr %26, align 8
  %28 = add nsw i32 %27, 1
  %29 = sext i32 %28 to i64
  %30 = shl nsw i64 %29, 2
  tail call void @llvm.memset.p0.i64(ptr align 4 %25, i8 -1, i64 %30, i1 false)
  %31 = getelementptr inbounds nuw i8, ptr %0, i64 108
  %32 = load i32, ptr %31, align 4
  %33 = mul nsw i32 %32, %28
  %34 = add i32 %33, 1
  %35 = add i32 %34, %27
  %36 = icmp ult i32 %35, %24
  br i1 %36, label %.lr.ph, label %._crit_edge

.lr.ph:                                           ; preds = %23, %.lr.ph
  %.045 = phi i32 [ %42, %.lr.ph ], [ %33, %23 ]
  %.04044 = phi ptr [ %39, %.lr.ph ], [ %3, %23 ]
  store i32 %.045, ptr %.04044, align 4
  %37 = load ptr, ptr %15, align 8
  %38 = zext i32 %.045 to i64
  %39 = getelementptr inbounds nuw i32, ptr %37, i64 %38
  %40 = load i32, ptr %26, align 8
  %41 = add i32 %.045, 1
  %42 = add i32 %41, %40
  %43 = add i32 %42, 1
  %44 = add i32 %43, %40
  %45 = load i32, ptr %7, align 8
  %46 = icmp ult i32 %44, %45
  br i1 %46, label %.lr.ph, label %._crit_edge, !llvm.loop !10

._crit_edge:                                      ; preds = %.lr.ph, %23
  %.040.lcssa = phi ptr [ %3, %23 ], [ %39, %.lr.ph ]
  store i32 0, ptr %.040.lcssa, align 4
  %.pre46 = load i32, ptr %3, align 4
  br label %47

47:                                               ; preds = %._crit_edge, %2
  %48 = phi i32 [ %.pre46, %._crit_edge ], [ %4, %2 ]
  %49 = getelementptr inbounds nuw i8, ptr %0, i64 88
  %50 = load ptr, ptr %49, align 8
  %51 = sext i32 %1 to i64
  %52 = getelementptr inbounds i32, ptr %50, i64 %51
  store i32 %48, ptr %52, align 4
  %53 = getelementptr inbounds nuw i8, ptr %0, i64 96
  %54 = load ptr, ptr %53, align 8
  %55 = load i32, ptr %3, align 4
  %56 = sext i32 %55 to i64
  %57 = getelementptr inbounds i32, ptr %54, i64 %56
  %58 = load i32, ptr %57, align 4
  store i32 %58, ptr %3, align 4
  %59 = getelementptr inbounds nuw i8, ptr %0, i64 80
  %60 = load ptr, ptr %59, align 8
  %61 = getelementptr inbounds i32, ptr %60, i64 %51
  %62 = load i32, ptr %61, align 4
  store i32 %62, ptr %57, align 4
  %63 = getelementptr inbounds nuw i8, ptr %0, i64 108
  %64 = load i32, ptr %63, align 4
  %65 = add nsw i32 %64, 1
  store i32 %65, ptr %63, align 4
  %66 = getelementptr inbounds nuw i8, ptr %0, i64 112
  %67 = load i32, ptr %66, align 8
  %.not43 = icmp sgt i32 %67, %64
  br i1 %.not43, label %69, label %68

68:                                               ; preds = %47
  store i32 %65, ptr %66, align 8
  br label %69

69:                                               ; preds = %68, %47
  ret ptr %57
}